target datalayout = "e-m:e-p270:32:32-p271:32:32-p272:64:64-i64:64-i128:128-f80:128-n8:16:32:64-S128"
target triple = "x86_64-pc-linux-gnu"

%struct.mbedtls_ssl_transform = type { i64, i64, i64, i64, i64, [16 x i8], [16 x i8], %struct.mbedtls_md_context_t, %struct.mbedtls_md_context_t, i32, i32, %struct.mbedtls_cipher_context_t, %struct.mbedtls_cipher_context_t, i8, i8, [32 x i8], [32 x i8], [64 x i8] }
%struct.mbedtls_md_context_t = type { ptr, ptr, ptr }
%struct.mbedtls_cipher_context_t = type { ptr, i32, i32, ptr, ptr, [16 x i8], i64, [16 x i8], i64, ptr, ptr }

; Function Attrs: nounwind uwtable
define hidden void @mbedtls_ssl_transform_init(ptr noundef %0) #0 {
  %2 = alloca ptr, align 8
  store ptr %0, ptr %2, align 8, !tbaa !88
  %3 = load ptr, ptr %2, align 8, !tbaa !88
  call void @llvm.memset.p0.i64(ptr align 8 %3, i8 0, i64 456, i1 false)
  %4 = load ptr, ptr %2, align 8, !tbaa !88
  %5 = getelementptr inbounds nuw %struct.mbedtls_ssl_transform, ptr %4, i32 0, i32 11
  call void @mbedtls_cipher_init(ptr noundef %5)
  %6 = load ptr, ptr %2, align 8, !tbaa !88
  %7 = getelementptr inbounds nuw %struct.mbedtls_ssl_transform, ptr %6, i32 0, i32 12
  call void @mbedtls_cipher_init(ptr noundef %7)
  %8 = load ptr, ptr %2, align 8, !tbaa !88
  %9 = getelementptr inbounds nuw %struct.mbedtls_ssl_transform, ptr %8, i32 0, i32 7
  call void @mbedtls_md_init(ptr noundef %9)
  %10 = load ptr, ptr %2, align 8, !tbaa !88
  %11 = getelementptr inbounds nuw %struct.mbedtls_ssl_transform, ptr %10, i32 0, i32 8
  call void @mbedtls_md_init(ptr noundef %11)
  ret void
}