; Function Attrs: nounwind uwtable
define hidden void @mbedtls_ssl_transform_init(ptr noundef initializes((0, 456)) %0) local_unnamed_addr #1 {
  tail call void @llvm.memset.p0.i64(ptr noundef nonnull align 8 dereferenceable(456) %0, i8 0, i64 456, i1 false)
  %2 = getelementptr inbounds nuw i8, ptr %0, i64 128
  tail call void @mbedtls_cipher_init(ptr noundef nonnull %2) #26
  %3 = getelementptr inbounds nuw i8, ptr %0, i64 224
  tail call void @mbedtls_cipher_init(ptr noundef nonnull %3) #26
  %4 = getelementptr inbounds nuw i8, ptr %0, i64 72
  tail call void @mbedtls_md_init(ptr noundef nonnull %4) #26
  %5 = getelementptr inbounds nuw i8, ptr %0, i64 96
  tail call void @mbedtls_md_init(ptr noundef nonnull %5) #26
  ret void
}